; Function Attrs: nounwind uwtable
define range(i32 0, 2) i32 @Abc_NtkMaxFlowVerifyCut_rec(ptr noundef readonly captures(none) %0, i32 noundef %1) local_unnamed_addr #0 {
  %.val2.i = load ptr, ptr %0, align 8
  %3 = getelementptr i8, ptr %0, i64 16
  %.val3.i = load i32, ptr %3, align 8
  %4 = getelementptr inbounds nuw i8, ptr %.val2.i, i64 224
  %5 = add nsw i32 %.val3.i, 1
  tail call fastcc void @Vec_IntFillExtra(ptr noundef nonnull %4, i32 noundef %5)
  %6 = getelementptr i8, ptr %.val2.i, i64 232
  %.val.i.i.i = load ptr, ptr %6, align 8
  %7 = sext i32 %.val3.i to i64
  %8 = getelementptr inbounds i32, ptr %.val.i.i.i, i64 %7
  %9 = load i32, ptr %8, align 4
  %.val.i = load ptr, ptr %0, align 8
  %10 = getelementptr inbounds nuw i8, ptr %.val.i, i64 216
  %11 = load i32, ptr %10, align 8
  %.not = icmp eq i32 %9, %11
  br i1 %.not, label %.critedge, label %12

12:                                               ; preds = %2
  %.val29 = load i32, ptr %3, align 8
  %13 = getelementptr inbounds nuw i8, ptr %.val.i, i64 224
  %14 = add nsw i32 %.val29, 1
  tail call fastcc void @Vec_IntFillExtra(ptr noundef nonnull %13, i32 noundef %14)
  %15 = getelementptr i8, ptr %.val.i, i64 232
  %.val.i.i.i38 = load ptr, ptr %15, align 8
  %16 = sext i32 %.val29 to i64
  %17 = getelementptr inbounds i32, ptr %.val.i.i.i38, i64 %16
  store i32 %11, ptr %17, align 4
  %.not24 = icmp eq i32 %1, 0
  %18 = getelementptr i8, ptr %0, i64 20
  %.val37 = load i32, ptr %18, align 4
  %19 = and i32 %.val37, 15
  br i1 %.not24, label %37, label %20

20:                                               ; preds = %12
  %21 = add nsw i32 %19, -5
  %narrow.i = icmp ult i32 %21, -2
  br i1 %narrow.i, label %.preheader42, label %.critedge

.preheader42:                                     ; preds = %20
  %22 = getelementptr i8, ptr %0, i64 44
  %.val3045 = load i32, ptr %22, align 4
  %23 = icmp sgt i32 %.val3045, 0
  br i1 %23, label %.lr.ph, label %.critedge

.lr.ph:                                           ; preds = %.preheader42
  %24 = getelementptr i8, ptr %0, i64 48
  br label %28

25:                                               ; preds = %28
  %indvars.iv.next = add nuw nsw i64 %indvars.iv, 1
  %.val30 = load i32, ptr %22, align 4
  %26 = sext i32 %.val30 to i64
  %27 = icmp slt i64 %indvars.iv.next, %26
  br i1 %27, label %28, label %.critedge, !llvm.loop !31

28:                                               ; preds = %.lr.ph, %25
  %indvars.iv = phi i64 [ 0, %.lr.ph ], [ %indvars.iv.next, %25 ]
  %.val31 = load ptr, ptr %0, align 8
  %.val32 = load ptr, ptr %24, align 8
  %29 = getelementptr i8, ptr %.val31, i64 32
  %.val31.val = load ptr, ptr %29, align 8
  %30 = getelementptr i8, ptr %.val31.val, i64 8
  %.val31.val.val = load ptr, ptr %30, align 8
  %31 = getelementptr inbounds nuw i32, ptr %.val32, i64 %indvars.iv
  %32 = load i32, ptr %31, align 4
  %33 = sext i32 %32 to i64
  %34 = getelementptr inbounds ptr, ptr %.val31.val.val, i64 %33
  %35 = load ptr, ptr %34, align 8
  %36 = tail call i32 @Abc_NtkMaxFlowVerifyCut_rec(ptr noundef %35, i32 noundef %1)
  %.not28 = icmp eq i32 %36, 0
  br i1 %.not28, label %.critedge, label %25

37:                                               ; preds = %12
  switch i32 %19, label %.preheader [
    i32 5, label %.critedge
    i32 2, label %.critedge
  ]

.preheader:                                       ; preds = %37
  %38 = getelementptr i8, ptr %0, i64 28
  %.val3349 = load i32, ptr %38, align 4
  %39 = icmp sgt i32 %.val3349, 0
  br i1 %39, label %.lr.ph51, label %.critedge

.lr.ph51:                                         ; preds = %.preheader
  %40 = getelementptr i8, ptr %0, i64 32
  br label %44

41:                                               ; preds = %44
  %indvars.iv.next59 = add nuw nsw i64 %indvars.iv58, 1
  %.val33 = load i32, ptr %38, align 4
  %42 = sext i32 %.val33 to i64
  %43 = icmp slt i64 %indvars.iv.next59, %42
  br i1 %43, label %44, label %.critedge, !llvm.loop !32

44:                                               ; preds = %.lr.ph51, %41
  %indvars.iv58 = phi i64 [ 0, %.lr.ph51 ], [ %indvars.iv.next59, %41 ]
  %.val34 = load ptr, ptr %0, align 8
  %.val35 = load ptr, ptr %40, align 8
  %45 = getelementptr i8, ptr %.val34, i64 32
  %.val34.val = load ptr, ptr %45, align 8
  %46 = getelementptr i8, ptr %.val34.val, i64 8
  %.val34.val.val = load ptr, ptr %46, align 8
  %47 = getelementptr inbounds nuw i32, ptr %.val35, i64 %indvars.iv58
  %48 = load i32, ptr %47, align 4
  %49 = sext i32 %48 to i64
  %50 = getelementptr inbounds ptr, ptr %.val34.val.val, i64 %49
  %51 = load ptr, ptr %50, align 8
  %52 = tail call i32 @Abc_NtkMaxFlowVerifyCut_rec(ptr noundef %51, i32 noundef 0)
  %.not26 = icmp eq i32 %52, 0
  br i1 %.not26, label %.critedge, label %41

.critedge:                                        ; preds = %28, %25, %44, %41, %.preheader42, %.preheader, %37, %37, %20, %2
  %.021 = phi i32 [ 1, %2 ], [ 0, %20 ], [ 0, %37 ], [ 0, %37 ], [ 1, %.preheader ], [ 1, %.preheader42 ], [ 0, %44 ], [ 1, %41 ], [ 0, %28 ], [ 1, %25 ]
  ret i32 %.021
}